target datalayout = "e-m:e-p270:32:32-p271:32:32-p272:64:64-i64:64-i128:128-f80:128-n8:16:32:64-S128"
target triple = "x86_64-pc-linux-gnu"

%class.frame = type { %union.anon.2, ptr, ptr, ptr, i32, i8, %union.anon.3, %union.anon.4 }
%union.anon.2 = type { ptr }
%union.anon.3 = type { ptr }
%union.anon.4 = type { ptr }

@_ZN7VMError9_filenameE = hidden global ptr null, align 8
@_ZN7VMError7_linenoE = hidden global i32 0, align 4
@.str.11 = private unnamed_addr constant [80 x i8] c"Native frames: (J=compiled Java code, j=interpreted, Vv=VM code, C=native code)\00", align 1
@.str.12 = private unnamed_addr constant [10 x i8] c"  (%s:%d)\00", align 1
@.str.13 = private unnamed_addr constant [20 x i8] c"...<more frames>...\00", align 1
@.str.14 = private unnamed_addr constant [29 x i8] c"Native frames: <unavailable>\00", align 1

; Function Attrs: mustprogress nounwind uwtable
define linkonce_odr hidden noundef ptr @_ZN7VMError17get_filename_onlyEv() #1 comdat align 2 {
  %1 = alloca i8, align 1
  %2 = alloca ptr, align 8
  %3 = call noundef ptr @_ZN2os14file_separatorEv()
  %4 = getelementptr inbounds i8, ptr %3, i64 0
  %5 = load i8, ptr %4, align 1
  store i8 %5, ptr %1, align 1
  %6 = load ptr, ptr @_ZN7VMError9_filenameE, align 8
  %7 = load i8, ptr %1, align 1
  %8 = sext i8 %7 to i32
  %9 = call noundef ptr @strrchr(ptr noundef %6, i32 noundef %8) #12
  store ptr %9, ptr %2, align 8
  %10 = load ptr, ptr %2, align 8
  %11 = icmp ne ptr %10, null
  br i1 %11, label %12, label %15

12:                                               ; preds = %0
  %13 = load ptr, ptr %2, align 8
  %14 = getelementptr inbounds i8, ptr %13, i64 1
  br label %17

15:                                               ; preds = %0
  %16 = load ptr, ptr @_ZN7VMError9_filenameE, align 8
  br label %17

17:                                               ; preds = %15, %12
  %18 = phi ptr [ %14, %12 ], [ %16, %15 ]
  ret ptr %18
}

; Function Attrs: mustprogress nounwind uwtable
define linkonce_odr hidden noundef i32 @_Z4MIN2IiET_S0_S0_(i32 noundef %0, i32 noundef %1) #1 comdat {
  %3 = alloca i32, align 4
  %4 = alloca i32, align 4
  store i32 %0, ptr %3, align 4
  store i32 %1, ptr %4, align 4
  %5 = load i32, ptr %3, align 4
  %6 = load i32, ptr %4, align 4
  %7 = icmp slt i32 %5, %6
  br i1 %7, label %8, label %10

8:                                                ; preds = %2
  %9 = load i32, ptr %3, align 4
  br label %12

10:                                               ; preds = %2
  %11 = load i32, ptr %4, align 4
  br label %12

12:                                               ; preds = %10, %8
  %13 = phi i32 [ %9, %8 ], [ %11, %10 ]
  ret i32 %13
}

; Function Attrs: mustprogress nounwind uwtable
define linkonce_odr hidden noundef ptr @_ZNK5frame2pcEv(ptr noundef nonnull align 8 dereferenceable(56) %0) #1 comdat align 2 {
  %2 = alloca ptr, align 8
  store ptr %0, ptr %2, align 8
  %3 = load ptr, ptr %2, align 8
  %4 = getelementptr inbounds %class.frame, ptr %3, i32 0, i32 1
  %5 = load ptr, ptr %4, align 8
  ret ptr %5
}

; Function Attrs: mustprogress nounwind uwtable
define hidden void @_ZN7VMError18print_native_stackEP12outputStream5frameP6ThreadbiPci(ptr noundef %0, ptr noundef byval(%class.frame) align 8 %1, ptr noundef %2, i1 noundef zeroext %3, i32 noundef %4, ptr noundef %5, i32 noundef %6) #1 align 2 {
  %8 = alloca ptr, align 8
  %9 = alloca ptr, align 8
  %10 = alloca i8, align 1
  %11 = alloca i32, align 4
  %12 = alloca ptr, align 8
  %13 = alloca i32, align 4
  %14 = alloca i32, align 4
  %15 = alloca i32, align 4
  %16 = alloca [128 x i8], align 16
  %17 = alloca i32, align 4
  %18 = alloca %class.frame, align 8
  %19 = alloca %class.frame, align 8
  store ptr %0, ptr %8, align 8
  store ptr %2, ptr %9, align 8
  %20 = zext i1 %3 to i8
  store i8 %20, ptr %10, align 1
  store i32 %4, ptr %11, align 4
  store ptr %5, ptr %12, align 8
  store i32 %6, ptr %13, align 4
  %21 = call noundef ptr @_ZNK5frame2pcEv(ptr noundef nonnull align 8 dereferenceable(56) %1)
  %22 = icmp ne ptr %21, null
  br i1 %22, label %23, label %83

23:                                               ; preds = %7
  %24 = load ptr, ptr %8, align 8
  call void (ptr, ptr, ...) @_ZN12outputStream8print_crEPKcz(ptr noundef nonnull align 8 dereferenceable(56) %24, ptr noundef @.str.11)
  %25 = load i32, ptr %11, align 4
  %26 = icmp eq i32 %25, -1
  br i1 %26, label %27, label %28

27:                                               ; preds = %23
  br label %31

28:                                               ; preds = %23
  %29 = load i32, ptr %11, align 4
  %30 = call noundef i32 @_Z4MIN2IiET_S0_S0_(i32 noundef %29, i32 noundef 100)
  br label %31

31:                                               ; preds = %28, %27
  %32 = phi i32 [ 100, %27 ], [ %30, %28 ]
  store i32 %32, ptr %14, align 4
  store i32 0, ptr %15, align 4
  br label %33

33:                                               ; preds = %75, %31
  %34 = load i32, ptr %15, align 4
  %35 = add nsw i32 %34, 1
  store i32 %35, ptr %15, align 4
  %36 = load i32, ptr %14, align 4
  %37 = icmp slt i32 %34, %36
  br i1 %37, label %38, label %76

38:                                               ; preds = %33
  %39 = load ptr, ptr %8, align 8
  %40 = load ptr, ptr %12, align 8
  %41 = load i32, ptr %13, align 4
  call void @_ZNK5frame14print_on_errorEP12outputStreamPcib(ptr noundef nonnull align 8 dereferenceable(56) %1, ptr noundef %39, ptr noundef %40, i32 noundef %41, i1 noundef zeroext false)
  %42 = call noundef ptr @_ZNK5frame2pcEv(ptr noundef nonnull align 8 dereferenceable(56) %1)
  %43 = icmp ne ptr %42, null
  br i1 %43, label %44, label %69

44:                                               ; preds = %38
  %45 = load i32, ptr %15, align 4
  %46 = icmp eq i32 %45, 1
  br i1 %46, label %47, label %54

47:                                               ; preds = %44
  %48 = load i32, ptr @_ZN7VMError7_linenoE, align 4
  %49 = icmp ne i32 %48, 0
  br i1 %49, label %50, label %54

50:                                               ; preds = %47
  %51 = load ptr, ptr %8, align 8
  %52 = call noundef ptr @_ZN7VMError17get_filename_onlyEv()
  %53 = load i32, ptr @_ZN7VMError7_linenoE, align 4
  call void (ptr, ptr, ...) @_ZN12outputStream5printEPKcz(ptr noundef nonnull align 8 dereferenceable(56) %51, ptr noundef @.str.12, ptr noundef %52, i32 noundef %53)
  br label %68

54:                                               ; preds = %47, %44
  %55 = load i8, ptr %10, align 1
  %56 = trunc i8 %55 to i1
  br i1 %56, label %57, label %67

57:                                               ; preds = %54
  %58 = call noundef ptr @_ZNK5frame2pcEv(ptr noundef nonnull align 8 dereferenceable(56) %1)
  %59 = getelementptr inbounds [128 x i8], ptr %16, i64 0, i64 0
  %60 = load i32, ptr %15, align 4
  %61 = icmp ne i32 %60, 1
  %62 = call noundef zeroext i1 @_ZN7Decoder15get_source_infoEPhPcmPib(ptr noundef %58, ptr noundef %59, i64 noundef 128, ptr noundef %17, i1 noundef zeroext %61)
  br i1 %62, label %63, label %67

63:                                               ; preds = %57
  %64 = load ptr, ptr %8, align 8
  %65 = getelementptr inbounds [128 x i8], ptr %16, i64 0, i64 0
  %66 = load i32, ptr %17, align 4
  call void (ptr, ptr, ...) @_ZN12outputStream5printEPKcz(ptr noundef nonnull align 8 dereferenceable(56) %64, ptr noundef @.str.12, ptr noundef %65, i32 noundef %66)
  br label %67

67:                                               ; preds = %63, %57, %54
  br label %68

68:                                               ; preds = %67, %50
  br label %69

69:                                               ; preds = %68, %38
  %70 = load ptr, ptr %8, align 8
  call void @_ZN12outputStream2crEv(ptr noundef nonnull align 8 dereferenceable(56) %70)
  call void @llvm.memcpy.p0.p0.i64(ptr align 8 %19, ptr align 8 %1, i64 56, i1 false)
  %71 = load ptr, ptr %9, align 8
  call void @_ZL10next_frame5frameP6Thread(ptr dead_on_unwind writable sret(%class.frame) align 8 %18, ptr noundef byval(%class.frame) align 8 %19, ptr noundef %71)
  call void @llvm.memcpy.p0.p0.i64(ptr align 8 %1, ptr align 8 %18, i64 56, i1 false)
  %72 = call noundef ptr @_ZNK5frame2pcEv(ptr noundef nonnull align 8 dereferenceable(56) %1)
  %73 = icmp eq ptr %72, null
  br i1 %73, label %74, label %75

74:                                               ; preds = %69
  br label %76

75:                                               ; preds = %69
  br label %33, !llvm.loop !8

76:                                               ; preds = %74, %33
  %77 = load i32, ptr %15, align 4
  %78 = load i32, ptr %14, align 4
  %79 = icmp sgt i32 %77, %78
  br i1 %79, label %80, label %82

80:                                               ; preds = %76
  %81 = load ptr, ptr %8, align 8
  call void (ptr, ptr, ...) @_ZN12outputStream8print_crEPKcz(ptr noundef nonnull align 8 dereferenceable(56) %81, ptr noundef @.str.13)
  br label %82

82:                                               ; preds = %80, %76
  br label %85

83:                                               ; preds = %7
  %84 = load ptr, ptr %8, align 8
  call void (ptr, ptr, ...) @_ZN12outputStream8print_crEPKcz(ptr noundef nonnull align 8 dereferenceable(56) %84, ptr noundef @.str.14)
  br label %85

85:                                               ; preds = %83, %82
  ret void
}